; Function Attrs: nounwind uwtable
define internal ptr @atexit_ncallbacks(ptr readnone captures(none) %0, ptr readnone captures(none) %1) #0 {
  %3 = tail call align 8 ptr @llvm.threadlocal.address.p0(ptr align 8 @_Py_tss_tstate)
  %4 = load ptr, ptr %3, align 8, !tbaa !4
  %5 = getelementptr inbounds nuw i8, ptr %4, i64 16
  %6 = load ptr, ptr %5, align 8, !tbaa !38
  %7 = getelementptr inbounds nuw i8, ptr %6, i64 10736
  %8 = load ptr, ptr %7, align 8, !tbaa !16
  %9 = getelementptr i8, ptr %8, i64 16
  %.val = load i64, ptr %9, align 8, !tbaa !29
  %10 = tail call ptr @PyLong_FromSsize_t(i64 noundef %.val) #6
  ret ptr %10
}